target datalayout = "e-m:e-p270:32:32-p271:32:32-p272:64:64-i64:64-i128:128-f80:128-n8:16:32:64-S128"
target triple = "x86_64-pc-linux-gnu"

%class.rational = type { %class.mpq }
%class.mpq = type { %class.mpz, %class.mpz }
%class.mpz = type { i32, i8, ptr }
%class.svector.9 = type { %class.vector.10 }
%class.vector.10 = type { ptr }
%"class.dd::pdd_manager" = type { %class.svector, %class.vector.0, %class.ptr_hashtable, %class.hashtable, %class.hashtable.3, %class.map, %class.svector.9, ptr, %class.svector.9, %class.svector.9, %class.svector.9, %class.svector.9, %class.small_object_allocator, %class.svector.9, i32, %class.svector.9, %class.svector.9, %class.svector.11, i8, i8, i32, i32, %class.svector.9, %class.svector.9, %class.rational, %class.rational, i32, %class.rational, %class.svector.9, i32, %class.svector.9, %class.svector.9, %class.rational, %class.rational }
%class.svector = type { %class.vector }
%class.vector = type { ptr }
%class.vector.0 = type { ptr }
%class.ptr_hashtable = type { %class.core_hashtable.base, [4 x i8] }
%class.core_hashtable.base = type <{ ptr, i32, i32, i32 }>
%class.hashtable = type { %class.core_hashtable.base.2, [4 x i8] }
%class.core_hashtable.base.2 = type <{ ptr, i32, i32, i32 }>
%class.hashtable.3 = type { %class.core_hashtable.base.5, [4 x i8] }
%class.core_hashtable.base.5 = type <{ ptr, i32, i32, i32 }>
%class.map = type { %class.table2map }
%class.table2map = type { %class.core_hashtable.7 }
%class.core_hashtable.7 = type <{ ptr, i32, i32, i32, [4 x i8] }>
%class.small_object_allocator = type { [32 x ptr], [32 x ptr], i64 }
%class.svector.11 = type { %class.vector.12 }
%class.vector.12 = type { ptr }
%"struct.dd::pdd_manager::node" = type { i32, i32, i32, i32 }
%"class.dd::pdd" = type { i32, ptr }

; Function Attrs: mustprogress nounwind uwtable
define linkonce_odr hidden noundef nonnull align 4 dereferenceable(16) ptr @_ZN6vectorIN2dd11pdd_manager4nodeELb0EjEixEj(ptr noundef nonnull align 8 dereferenceable(8) %0, i32 noundef %1) #5 comdat align 2 {
  %3 = alloca ptr, align 8
  %4 = alloca i32, align 4
  store ptr %0, ptr %3, align 8, !tbaa !108
  store i32 %1, ptr %4, align 4, !tbaa !8
  %5 = load ptr, ptr %3, align 8
  %6 = getelementptr inbounds nuw %class.vector, ptr %5, i32 0, i32 0
  %7 = load ptr, ptr %6, align 8, !tbaa !123
  %8 = load i32, ptr %4, align 4, !tbaa !8
  %9 = zext i32 %8 to i64
  %10 = getelementptr inbounds nuw %"struct.dd::pdd_manager::node", ptr %7, i64 %9
  ret ptr %10
}

; Function Attrs: inlinehint mustprogress uwtable
define linkonce_odr hidden void @_ZN2dd11pdd_manager7dec_refEj(ptr noundef nonnull align 8 dereferenceable(952) %0, i32 noundef %1) #7 comdat align 2 {
  %3 = alloca ptr, align 8
  %4 = alloca i32, align 4
  store ptr %0, ptr %3, align 8, !tbaa !3
  store i32 %1, ptr %4, align 4, !tbaa !8
  %5 = load ptr, ptr %3, align 8
  %6 = getelementptr inbounds nuw %"class.dd::pdd_manager", ptr %5, i32 0, i32 0
  %7 = load i32, ptr %4, align 4, !tbaa !8
  %8 = call noundef nonnull align 4 dereferenceable(16) ptr @_ZN6vectorIN2dd11pdd_manager4nodeELb0EjEixEj(ptr noundef nonnull align 8 dereferenceable(8) %6, i32 noundef %7)
  %9 = load i32, ptr %8, align 4
  %10 = and i32 %9, 1023
  %11 = icmp ne i32 %10, 1023
  br i1 %11, label %12, label %23

12:                                               ; preds = %2
  %13 = getelementptr inbounds nuw %"class.dd::pdd_manager", ptr %5, i32 0, i32 0
  %14 = load i32, ptr %4, align 4, !tbaa !8
  %15 = call noundef nonnull align 4 dereferenceable(16) ptr @_ZN6vectorIN2dd11pdd_manager4nodeELb0EjEixEj(ptr noundef nonnull align 8 dereferenceable(8) %13, i32 noundef %14)
  %16 = load i32, ptr %15, align 4
  %17 = and i32 %16, 1023
  %18 = add i32 %17, -1
  %19 = load i32, ptr %15, align 4
  %20 = and i32 %18, 1023
  %21 = and i32 %19, -1024
  %22 = or i32 %21, %20
  store i32 %22, ptr %15, align 4
  br label %23

23:                                               ; preds = %12, %2
  ret void
}

; Function Attrs: mustprogress uwtable
define hidden void @_ZN2dd3pdd5resetERNS_11pdd_managerE(ptr noundef nonnull align 8 dereferenceable(16) %0, ptr noundef nonnull align 8 dereferenceable(952) %1) #4 align 2 {
  %3 = alloca ptr, align 8
  %4 = alloca ptr, align 8
  store ptr %0, ptr %3, align 8, !tbaa !146
  store ptr %1, ptr %4, align 8, !tbaa !3
  %5 = load ptr, ptr %3, align 8
  %6 = getelementptr inbounds nuw %"class.dd::pdd", ptr %5, i32 0, i32 1
  %7 = load ptr, ptr %6, align 8, !tbaa !153
  %8 = getelementptr inbounds nuw %"class.dd::pdd", ptr %5, i32 0, i32 0
  %9 = load i32, ptr %8, align 8, !tbaa !148
  call void @_ZN2dd11pdd_manager7dec_refEj(ptr noundef nonnull align 8 dereferenceable(952) %7, i32 noundef %9)
  %10 = getelementptr inbounds nuw %"class.dd::pdd", ptr %5, i32 0, i32 0
  store i32 0, ptr %10, align 8, !tbaa !148
  %11 = load ptr, ptr %4, align 8, !tbaa !3
  %12 = getelementptr inbounds nuw %"class.dd::pdd", ptr %5, i32 0, i32 1
  store ptr %11, ptr %12, align 8, !tbaa !153
  ret void
}