; Function Attrs: mustprogress nofree norecurse nosync nounwind willreturn memory(readwrite, inaccessiblemem: none) uwtable
define hidden void @_ZN2dd3pdd5resetERNS_11pdd_managerE(ptr noundef nonnull align 8 captures(none) dereferenceable(16) %0, ptr noundef nonnull align 8 dereferenceable(952) %1) local_unnamed_addr #10 align 2 {
  %3 = getelementptr inbounds nuw i8, ptr %0, i64 8
  %4 = load ptr, ptr %3, align 8, !tbaa !122
  %5 = load i32, ptr %0, align 8, !tbaa !119
  %6 = load ptr, ptr %4, align 8, !tbaa !91
  %7 = zext i32 %5 to i64
  %8 = getelementptr inbounds nuw %"struct.dd::pdd_manager::node", ptr %6, i64 %7
  %9 = load i32, ptr %8, align 4
  %10 = and i32 %9, 1023
  %.not.i = icmp eq i32 %10, 1023
  br i1 %.not.i, label %_ZN2dd11pdd_manager7dec_refEj.exit, label %11

11:                                               ; preds = %2
  %12 = add i32 %9, 1023
  %13 = and i32 %12, 1023
  %14 = and i32 %9, -1024
  %15 = or disjoint i32 %13, %14
  store i32 %15, ptr %8, align 4
  br label %_ZN2dd11pdd_manager7dec_refEj.exit

_ZN2dd11pdd_manager7dec_refEj.exit:               ; preds = %2, %11
  store i32 0, ptr %0, align 8, !tbaa !119
  store ptr %1, ptr %3, align 8, !tbaa !122
  ret void
}